target datalayout = "e-m:e-p270:32:32-p271:32:32-p272:64:64-i64:64-i128:128-f80:128-n8:16:32:64-S128"
target triple = "x86_64-pc-linux-gnu"

%union.anon = type { i64 }
%"struct.Atomic::StoreImpl" = type { i8 }
%"struct.Atomic::PlatformStore" = type { i8 }

@g_assert_poison = external global ptr, align 8
@.str.4 = private unnamed_addr constant [39 x i8] c"src/hotspot/cpu/x86/nativeInst_x86.cpp\00", align 1
@.str.8 = private unnamed_addr constant [22 x i8] c"must be 32-bit offset\00", align 1
@.str.20 = private unnamed_addr constant [50 x i8] c"guarantee(disp == (intptr_t)(int32_t)disp) failed\00", align 1

; Function Attrs: mustprogress nounwind uwtable
define linkonce_odr hidden void @_ZNK6Atomic13PlatformStoreILm8EEclIlEEvPVT_S3_(ptr noundef nonnull align 1 dereferenceable(1) %0, ptr noundef %1, i64 noundef %2) #1 comdat align 2 {
  %4 = alloca ptr, align 8
  %5 = alloca ptr, align 8
  %6 = alloca i64, align 8
  store ptr %0, ptr %4, align 8
  store ptr %1, ptr %5, align 8
  store i64 %2, ptr %6, align 8
  %7 = load i64, ptr %6, align 8
  %8 = load ptr, ptr %5, align 8
  store volatile i64 %7, ptr %8, align 8
  ret void
}

; Function Attrs: mustprogress nounwind uwtable
define linkonce_odr hidden void @_ZNK6Atomic9StoreImplIllNS_13PlatformStoreILm8EEEvEclEPVll(ptr noundef nonnull align 1 dereferenceable(1) %0, ptr noundef %1, i64 noundef %2) #1 comdat align 2 {
  %4 = alloca ptr, align 8
  %5 = alloca ptr, align 8
  %6 = alloca i64, align 8
  %7 = alloca %"struct.Atomic::PlatformStore", align 1
  store ptr %0, ptr %4, align 8
  store ptr %1, ptr %5, align 8
  store i64 %2, ptr %6, align 8
  %8 = load ptr, ptr %5, align 8
  %9 = load i64, ptr %6, align 8
  call void @_ZNK6Atomic13PlatformStoreILm8EEclIlEEvPVT_S3_(ptr noundef nonnull align 1 dereferenceable(1) %7, ptr noundef %8, i64 noundef %9)
  ret void
}

; Function Attrs: mustprogress nounwind uwtable
define linkonce_odr hidden void @_ZN6Atomic5storeIllEEvPVT_T0_(ptr noundef %0, i64 noundef %1) #1 comdat align 2 {
  %3 = alloca ptr, align 8
  %4 = alloca i64, align 8
  %5 = alloca %"struct.Atomic::StoreImpl", align 1
  store ptr %0, ptr %3, align 8
  store i64 %1, ptr %4, align 8
  %6 = load ptr, ptr %3, align 8
  %7 = load i64, ptr %4, align 8
  call void @_ZNK6Atomic9StoreImplIllNS_13PlatformStoreILm8EEEvEclEPVll(ptr noundef nonnull align 1 dereferenceable(1) %5, ptr noundef %6, i64 noundef %7)
  ret void
}

; Function Attrs: mustprogress nounwind uwtable
define hidden void @_ZN10NativeJump20patch_verified_entryEPhS0_S0_(ptr noundef %0, ptr noundef %1, ptr noundef %2) #1 align 2 {
  %4 = alloca ptr, align 8
  %5 = alloca ptr, align 8
  %6 = alloca ptr, align 8
  %7 = alloca %union.anon, align 8
  %8 = alloca i64, align 8
  store ptr %0, ptr %4, align 8
  store ptr %1, ptr %5, align 8
  store ptr %2, ptr %6, align 8
  %9 = load ptr, ptr %5, align 8
  %10 = load i64, ptr %9, align 8
  store i64 %10, ptr %7, align 8
  %11 = load ptr, ptr %6, align 8
  %12 = ptrtoint ptr %11 to i64
  %13 = load ptr, ptr %5, align 8
  %14 = ptrtoint ptr %13 to i64
  %15 = add nsw i64 %14, 1
  %16 = add nsw i64 %15, 4
  %17 = sub nsw i64 %12, %16
  store i64 %17, ptr %8, align 8
  br label %18

18:                                               ; preds = %3
  %19 = load i64, ptr %8, align 8
  %20 = load i64, ptr %8, align 8
  %21 = trunc i64 %20 to i32
  %22 = sext i32 %21 to i64
  %23 = icmp eq i64 %19, %22
  br i1 %23, label %26, label %24

24:                                               ; preds = %18
  %25 = load ptr, ptr @g_assert_poison, align 8
  store i8 88, ptr %25, align 1
  call void (ptr, i32, ptr, ptr, ...) @_Z15report_vm_errorPKciS0_S0_z(ptr noundef @.str.4, i32 noundef 399, ptr noundef @.str.20, ptr noundef @.str.8) #4
  unreachable

26:                                               ; preds = %18
  br label %27

27:                                               ; preds = %26
  %28 = getelementptr inbounds [8 x i8], ptr %7, i64 0, i64 0
  store i8 -23, ptr %28, align 8
  %29 = load i64, ptr %8, align 8
  %30 = trunc i64 %29 to i32
  %31 = getelementptr inbounds [8 x i8], ptr %7, i64 0, i64 0
  %32 = getelementptr inbounds i8, ptr %31, i64 1
  store i32 %30, ptr %32, align 4
  %33 = load ptr, ptr %5, align 8
  %34 = load i64, ptr %7, align 8
  call void @_ZN6Atomic5storeIllEEvPVT_T0_(ptr noundef %33, i64 noundef %34)
  %35 = load ptr, ptr %5, align 8
  call void @_ZN14AbstractICache16invalidate_rangeEPhi(ptr noundef %35, i32 noundef 8)
  ret void
}