; Function Attrs: mustprogress nounwind uwtable
define hidden void @_ZN10NativeJump20patch_verified_entryEPhS0_S0_(ptr nocapture noundef readnone %0, ptr noundef %1, ptr noundef %2) local_unnamed_addr #0 align 2 {
  %4 = ptrtoint ptr %2 to i64
  %5 = ptrtoint ptr %1 to i64
  %reass.sub = sub i64 %4, %5
  %6 = add i64 %reass.sub, 2147483643
  %7 = icmp ult i64 %6, 4294967296
  br i1 %7, label %10, label %8

8:                                                ; preds = %3
  %9 = load ptr, ptr @g_assert_poison, align 8
  store i8 88, ptr %9, align 1
  tail call void (ptr, i32, ptr, ptr, ...) @_Z15report_vm_errorPKciS0_S0_z(ptr noundef nonnull @.str.4, i32 noundef 399, ptr noundef nonnull @.str.20, ptr noundef nonnull @.str.8) #8
  unreachable

10:                                               ; preds = %3
  %11 = load i64, ptr %1, align 8
  %.sroa.4.0.extract.shift = and i64 %11, -1099511627776
  %12 = shl nsw i64 %reass.sub, 8
  %.sroa.3.0.insert.ext = add i64 %12, 1099511626496
  %.sroa.3.0.insert.shift = and i64 %.sroa.3.0.insert.ext, 1099511627520
  %.sroa.3.0.insert.insert = or disjoint i64 %.sroa.3.0.insert.shift, %.sroa.4.0.extract.shift
  %.sroa.0.0.insert.insert = or disjoint i64 %.sroa.3.0.insert.insert, 233
  store volatile i64 %.sroa.0.0.insert.insert, ptr %1, align 8
  tail call void @_ZN14AbstractICache16invalidate_rangeEPhi(ptr noundef nonnull %1, i32 noundef 8) #7
  ret void
}